; Function Attrs: null_pointer_is_valid sspstrong uwtable
define zeroext i1 @tvb_utf_8_isprint(ptr noundef %0, i32 noundef %1, i32 noundef %2) local_unnamed_addr #0 {
  %4 = tail call fastcc ptr @ensure_contiguous(ptr noundef %0, i32 noundef %1, i32 noundef %2)
  %5 = icmp eq i32 %2, -1
  br i1 %5, label %6, label %compute_offset_and_remaining.exit

6:                                                ; preds = %3
  %7 = icmp sgt i32 %1, -1
  br i1 %7, label %8, label %11

8:                                                ; preds = %6
  %9 = getelementptr inbounds nuw i8, ptr %0, i64 40
  %10 = load i32, ptr %9, align 8
  %.not32.i.i = icmp ugt i32 %1, %10
  br i1 %.not32.i.i, label %compute_offset_and_remaining.exit, label %17, !prof !11

11:                                               ; preds = %6
  %12 = sub i32 0, %1
  %13 = getelementptr inbounds nuw i8, ptr %0, i64 40
  %14 = load i32, ptr %13, align 8
  %.not.i.i = icmp ult i32 %14, %12
  br i1 %.not.i.i, label %compute_offset_and_remaining.exit, label %15, !prof !11

15:                                               ; preds = %11
  %16 = add i32 %14, %1
  br label %17

17:                                               ; preds = %15, %8
  %18 = phi i32 [ %14, %15 ], [ %10, %8 ]
  %storemerge.i.i = phi i32 [ %16, %15 ], [ %1, %8 ]
  %19 = sub i32 %18, %storemerge.i.i
  br label %compute_offset_and_remaining.exit

compute_offset_and_remaining.exit:                ; preds = %11, %8, %17, %3
  %.0 = phi i32 [ %2, %3 ], [ %19, %17 ], [ -1, %8 ], [ -1, %11 ]
  %20 = tail call zeroext i1 @isprint_utf8_string(ptr noundef %4, i32 noundef %.0)
  ret i1 %20
}